; Function Attrs: cold nounwind optsize uwtable
define internal noundef i32 @encode_end(ptr noundef %0) #0 {
  %2 = getelementptr inbounds nuw i8, ptr %0, i64 32
  %3 = load ptr, ptr %2, align 8, !tbaa !4
  tail call void @ff_snow_common_end(ptr noundef %3) #14
  %4 = getelementptr inbounds nuw i8, ptr %3, i64 2151224
  tail call void @ff_rate_control_uninit(ptr noundef nonnull %4) #14
  %5 = getelementptr inbounds nuw i8, ptr %3, i64 2056
  tail call void @av_frame_free(ptr noundef nonnull %5) #14
  %6 = getelementptr inbounds nuw i8, ptr %3, i64 6448
  %7 = getelementptr inbounds nuw i8, ptr %3, i64 6512
  br label %12

8:                                                ; preds = %12
  %9 = getelementptr inbounds nuw i8, ptr %3, i64 2148744
  store ptr null, ptr %9, align 8, !tbaa !298
  %10 = getelementptr inbounds nuw i8, ptr %3, i64 2148736
  tail call void @av_freep(ptr noundef nonnull %10) #14
  %11 = getelementptr inbounds nuw i8, ptr %0, i64 496
  tail call void @av_freep(ptr noundef nonnull %11) #14
  ret i32 0

12:                                               ; preds = %1, %12
  %indvars.iv = phi i64 [ 0, %1 ], [ %indvars.iv.next, %12 ]
  %13 = getelementptr inbounds nuw [8 x ptr], ptr %6, i64 0, i64 %indvars.iv
  tail call void @av_freep(ptr noundef nonnull %13) #14
  %14 = getelementptr inbounds nuw [8 x ptr], ptr %7, i64 0, i64 %indvars.iv
  tail call void @av_freep(ptr noundef nonnull %14) #14
  %indvars.iv.next = add nuw nsw i64 %indvars.iv, 1
  %exitcond.not = icmp eq i64 %indvars.iv.next, 8
  br i1 %exitcond.not, label %8, label %12, !llvm.loop !299
}